; Function Attrs: mustprogress uwtable
define void @_ZN5boost6fibers15recursive_mutex4lockEv(ptr noundef nonnull align 8 dereferenceable(40) %0) local_unnamed_addr #3 align 2 personality ptr @__gxx_personality_v0 {
  %2 = alloca %"class.std::unique_lock", align 8
  %3 = getelementptr inbounds nuw i8, ptr %2, i64 8
  %4 = getelementptr inbounds nuw i8, ptr %0, i64 24
  %5 = getelementptr inbounds nuw i8, ptr %0, i64 8
  %6 = getelementptr inbounds nuw i8, ptr %0, i64 32
  br label %.backedge

.backedge:                                        ; preds = %.backedge.backedge, %1
  %7 = call noundef ptr @_ZN5boost6fibers7context6activeEv() #19
  call void @llvm.lifetime.start.p0(i64 16, ptr nonnull %2) #19
  store ptr %0, ptr %2, align 8, !tbaa !3
  store i8 0, ptr %3, align 8, !tbaa !9
  call void @_ZN5boost6fibers6detail13spinlock_ttas4lockEv(ptr noundef nonnull align 4 dereferenceable(4) %0) #19
  store i8 1, ptr %3, align 8, !tbaa !9
  %8 = load ptr, ptr %4, align 8, !tbaa !10
  %9 = icmp eq ptr %7, %8
  br i1 %9, label %10, label %13

10:                                               ; preds = %.backedge
  %11 = load i64, ptr %6, align 8, !tbaa !24
  %12 = add i64 %11, 1
  br label %.thread.sink.split

13:                                               ; preds = %.backedge
  %14 = icmp eq ptr %8, null
  br i1 %14, label %15, label %16

15:                                               ; preds = %13
  store ptr %7, ptr %4, align 8, !tbaa !10
  br label %.thread.sink.split

16:                                               ; preds = %13
  invoke void @_ZN5boost6fibers10wait_queue16suspend_and_waitERSt11unique_lockINS0_6detail13spinlock_ttasEEPNS0_7contextE(ptr noundef nonnull align 8 dereferenceable(16) %5, ptr noundef nonnull align 8 dereferenceable(9) %2, ptr noundef %7)
          to label %17 unwind label %21

17:                                               ; preds = %16
  %.pre = load i8, ptr %3, align 8, !tbaa !9, !range !25
  %18 = trunc nuw i8 %.pre to i1
  br i1 %18, label %.thread, label %.backedge.critedge

.thread.sink.split:                               ; preds = %10, %15
  %.sink = phi i64 [ 1, %15 ], [ %12, %10 ]
  store i64 %.sink, ptr %6, align 8, !tbaa !24
  br label %.thread

.thread:                                          ; preds = %.thread.sink.split, %17
  %switch13 = phi i1 [ true, %17 ], [ false, %.thread.sink.split ]
  %19 = load ptr, ptr %2, align 8, !tbaa !3
  %.not.i.i = icmp eq ptr %19, null
  br i1 %.not.i.i, label %_ZNSt11unique_lockIN5boost6fibers6detail13spinlock_ttasEED2Ev.exit, label %20

20:                                               ; preds = %.thread
  store atomic i32 1, ptr %19 release, align 4
  call void @llvm.lifetime.end.p0(i64 16, ptr nonnull %2) #19
  br i1 %switch13, label %.backedge.backedge, label %28

_ZNSt11unique_lockIN5boost6fibers6detail13spinlock_ttasEED2Ev.exit: ; preds = %.thread
  call void @llvm.lifetime.end.p0(i64 16, ptr nonnull %2) #19
  br i1 %switch13, label %.backedge.backedge, label %28

.backedge.critedge:                               ; preds = %17
  call void @llvm.lifetime.end.p0(i64 16, ptr nonnull %2) #19
  br label %.backedge.backedge

.backedge.backedge:                               ; preds = %.backedge.critedge, %_ZNSt11unique_lockIN5boost6fibers6detail13spinlock_ttasEED2Ev.exit, %20
  br label %.backedge

21:                                               ; preds = %16
  %22 = landingpad { ptr, i32 }
          cleanup
  %23 = load i8, ptr %3, align 8, !tbaa !9, !range !25, !noundef !26
  %24 = trunc nuw i8 %23 to i1
  br i1 %24, label %25, label %_ZNSt11unique_lockIN5boost6fibers6detail13spinlock_ttasEED2Ev.exit9

25:                                               ; preds = %21
  %26 = load ptr, ptr %2, align 8, !tbaa !3
  %.not.i.i8 = icmp eq ptr %26, null
  br i1 %.not.i.i8, label %_ZNSt11unique_lockIN5boost6fibers6detail13spinlock_ttasEED2Ev.exit9, label %27

27:                                               ; preds = %25
  store atomic i32 1, ptr %26 release, align 4
  br label %_ZNSt11unique_lockIN5boost6fibers6detail13spinlock_ttasEED2Ev.exit9

_ZNSt11unique_lockIN5boost6fibers6detail13spinlock_ttasEED2Ev.exit9: ; preds = %21, %25, %27
  call void @llvm.lifetime.end.p0(i64 16, ptr nonnull %2) #19
  resume { ptr, i32 } %22

28:                                               ; preds = %20, %_ZNSt11unique_lockIN5boost6fibers6detail13spinlock_ttasEED2Ev.exit
  ret void
}